target datalayout = "e-m:e-p270:32:32-p271:32:32-p272:64:64-i64:64-i128:128-f80:128-n8:16:32:64-S128"
target triple = "x86_64-unknown-linux-gnu"

; Function Attrs: mustprogress nounwind uwtable
define internal noundef i32 @_ZN6icu_75L15sortiComparatorEPKvS1_S1_(ptr noundef %0, ptr noundef %left, ptr noundef %right) #0 {
entry:
  %.addr = alloca ptr, align 8
  %left.addr = alloca ptr, align 8
  %right.addr = alloca ptr, align 8
  %e1 = alloca ptr, align 8
  %e2 = alloca ptr, align 8
  %result = alloca i32, align 4
  store ptr %0, ptr %.addr, align 8
  store ptr %left, ptr %left.addr, align 8
  store ptr %right, ptr %right.addr, align 8
  %1 = load ptr, ptr %left.addr, align 8
  store ptr %1, ptr %e1, align 8
  %2 = load ptr, ptr %right.addr, align 8
  store ptr %2, ptr %e2, align 8
  %3 = load ptr, ptr %e1, align 8
  %4 = load i32, ptr %3, align 8
  %5 = load ptr, ptr %e2, align 8
  %6 = load i32, ptr %5, align 8
  %cmp = icmp slt i32 %4, %6
  br i1 %cmp, label %cond.true, label %cond.false

cond.true:                                        ; preds = %entry
  br label %cond.end

cond.false:                                       ; preds = %entry
  %7 = load ptr, ptr %e1, align 8
  %8 = load i32, ptr %7, align 8
  %9 = load ptr, ptr %e2, align 8
  %10 = load i32, ptr %9, align 8
  %cmp1 = icmp eq i32 %8, %10
  %cond = select i1 %cmp1, i32 0, i32 1
  br label %cond.end

cond.end:                                         ; preds = %cond.false, %cond.true
  %cond2 = phi i32 [ -1, %cond.true ], [ %cond, %cond.false ]
  store i32 %cond2, ptr %result, align 4
  %11 = load i32, ptr %result, align 4
  ret i32 %11
}