; Function Attrs: mustprogress nofree norecurse nosync nounwind willreturn memory(argmem: read) uwtable
define internal noundef i32 @_ZN6icu_75L15sortiComparatorEPKvS1_S1_(ptr nocapture readnone %0, ptr nocapture noundef readonly %left, ptr nocapture noundef readonly %right) #12 {
entry:
  %1 = load i32, ptr %left, align 8
  %2 = load i32, ptr %right, align 8
  %cmp = icmp slt i32 %1, %2
  %cmp1 = icmp ne i32 %1, %2
  %cond = zext i1 %cmp1 to i32
  %cond2 = select i1 %cmp, i32 -1, i32 %cond
  ret i32 %cond2
}